target datalayout = "e-m:e-p270:32:32-p271:32:32-p272:64:64-i64:64-i128:128-f80:128-n8:16:32:64-S128"
target triple = "x86_64-pc-linux-gnu"

%"class.__gnu_cxx::__normal_iterator.604" = type { ptr }
%"struct.__gnu_cxx::__ops::_Iter_comp_iter" = type { %class.anon }
%class.anon = type { i8 }
%"struct.__gnu_cxx::__ops::_Iter_comp_val" = type { %class.anon }

; Function Attrs: mustprogress nounwind uwtable
define linkonce_odr dso_local noundef zeroext i1 @_ZStltIcSt11char_traitsIcESaIcEEbRKNSt7__cxx1112basic_stringIT_T0_T1_EESA_(ptr noundef nonnull align 8 dereferenceable(32) %0, ptr noundef nonnull align 8 dereferenceable(32) %1) #5 comdat personality ptr @__gxx_personality_v0 {
  %3 = alloca ptr, align 8
  %4 = alloca ptr, align 8
  store ptr %0, ptr %3, align 8
  store ptr %1, ptr %4, align 8
  %5 = load ptr, ptr %3, align 8
  %6 = load ptr, ptr %4, align 8
  %7 = invoke noundef i32 @_ZNKSt7__cxx1112basic_stringIcSt11char_traitsIcESaIcEE7compareERKS4_(ptr noundef nonnull align 8 dereferenceable(32) %5, ptr noundef nonnull align 8 dereferenceable(32) %6)
          to label %8 unwind label %10

8:                                                ; preds = %2
  %9 = icmp slt i32 %7, 0
  ret i1 %9

10:                                               ; preds = %2
  %11 = landingpad { ptr, i32 }
          catch ptr null
  %12 = extractvalue { ptr, i32 } %11, 0
  call void @__clang_call_terminate(ptr %12) #18
  unreachable
}

; Function Attrs: mustprogress uwtable
define internal noundef zeroext i1 @"_ZN9__gnu_cxx5__ops14_Iter_comp_valIZN25cmGhsMultiTargetGenerator12WriteSourcesERSoE3$_0EclINS_17__normal_iteratorIPP12cmSourceFileSt6vectorIS9_SaIS9_EEEES9_EEbT_RT0_"(ptr noundef nonnull align 1 dereferenceable(1) %0, ptr %1, ptr noundef nonnull align 8 dereferenceable(8) %2) #4 align 2 {
  %4 = alloca %"class.__gnu_cxx::__normal_iterator.604", align 8
  %5 = alloca ptr, align 8
  %6 = alloca ptr, align 8
  %7 = getelementptr inbounds %"class.__gnu_cxx::__normal_iterator.604", ptr %4, i32 0, i32 0
  store ptr %1, ptr %7, align 8
  store ptr %0, ptr %5, align 8
  store ptr %2, ptr %6, align 8
  %8 = load ptr, ptr %5, align 8
  %9 = getelementptr inbounds %"struct.__gnu_cxx::__ops::_Iter_comp_val", ptr %8, i32 0, i32 0
  %10 = call noundef nonnull align 8 dereferenceable(8) ptr @_ZNK9__gnu_cxx17__normal_iteratorIPP12cmSourceFileSt6vectorIS2_SaIS2_EEEdeEv(ptr noundef nonnull align 8 dereferenceable(8) %4) #3
  %11 = load ptr, ptr %10, align 8
  %12 = load ptr, ptr %6, align 8
  %13 = load ptr, ptr %12, align 8
  %14 = call noundef zeroext i1 @"_ZZN25cmGhsMultiTargetGenerator12WriteSourcesERSoENK3$_0clEP12cmSourceFileS3_"(ptr noundef nonnull align 1 dereferenceable(1) %9, ptr noundef %11, ptr noundef %13)
  ret i1 %14
}

; Function Attrs: mustprogress uwtable
define internal noundef zeroext i1 @"_ZZN25cmGhsMultiTargetGenerator12WriteSourcesERSoENK3$_0clEP12cmSourceFileS3_"(ptr noundef nonnull align 1 dereferenceable(1) %0, ptr noundef %1, ptr noundef %2) #4 align 2 {
  %4 = alloca ptr, align 8
  %5 = alloca ptr, align 8
  %6 = alloca ptr, align 8
  store ptr %0, ptr %4, align 8
  store ptr %1, ptr %5, align 8
  store ptr %2, ptr %6, align 8
  %7 = load ptr, ptr %5, align 8
  %8 = call noundef nonnull align 8 dereferenceable(32) ptr @_ZN12cmSourceFile15ResolveFullPathEPNSt7__cxx1112basic_stringIcSt11char_traitsIcESaIcEEES6_(ptr noundef nonnull align 8 dereferenceable(370) %7, ptr noundef null, ptr noundef null)
  %9 = load ptr, ptr %6, align 8
  %10 = call noundef nonnull align 8 dereferenceable(32) ptr @_ZN12cmSourceFile15ResolveFullPathEPNSt7__cxx1112basic_stringIcSt11char_traitsIcESaIcEEES6_(ptr noundef nonnull align 8 dereferenceable(370) %9, ptr noundef null, ptr noundef null)
  %11 = call noundef zeroext i1 @_ZStltIcSt11char_traitsIcESaIcEEbRKNSt7__cxx1112basic_stringIT_T0_T1_EESA_(ptr noundef nonnull align 8 dereferenceable(32) %8, ptr noundef nonnull align 8 dereferenceable(32) %10) #3
  ret i1 %11
}

; Function Attrs: mustprogress nounwind uwtable
define linkonce_odr dso_local void @_ZN9__gnu_cxx17__normal_iteratorIPP12cmSourceFileSt6vectorIS2_SaIS2_EEEC2ERKS3_(ptr noundef nonnull align 8 dereferenceable(8) %0, ptr noundef nonnull align 8 dereferenceable(8) %1) unnamed_addr #5 comdat align 2 {
  %3 = alloca ptr, align 8
  %4 = alloca ptr, align 8
  store ptr %0, ptr %3, align 8
  store ptr %1, ptr %4, align 8
  %5 = load ptr, ptr %3, align 8
  %6 = getelementptr inbounds %"class.__gnu_cxx::__normal_iterator.604", ptr %5, i32 0, i32 0
  %7 = load ptr, ptr %4, align 8
  %8 = load ptr, ptr %7, align 8
  store ptr %8, ptr %6, align 8
  ret void
}

; Function Attrs: mustprogress uwtable
define internal void @"_ZSt11__push_heapIN9__gnu_cxx17__normal_iteratorIPP12cmSourceFileSt6vectorIS3_SaIS3_EEEElS3_NS0_5__ops14_Iter_comp_valIZN25cmGhsMultiTargetGenerator12WriteSourcesERSoE3$_0EEEvT_T0_SG_T1_RT2_"(ptr %0, i64 noundef %1, i64 noundef %2, ptr noundef %3, ptr noundef nonnull align 1 dereferenceable(1) %4) #4 {
  %6 = alloca %"class.__gnu_cxx::__normal_iterator.604", align 8
  %7 = alloca i64, align 8
  %8 = alloca i64, align 8
  %9 = alloca ptr, align 8
  %10 = alloca ptr, align 8
  %11 = alloca i64, align 8
  %12 = alloca %"class.__gnu_cxx::__normal_iterator.604", align 8
  %13 = alloca %"class.__gnu_cxx::__normal_iterator.604", align 8
  %14 = alloca %"class.__gnu_cxx::__normal_iterator.604", align 8
  %15 = alloca %"class.__gnu_cxx::__normal_iterator.604", align 8
  %16 = getelementptr inbounds %"class.__gnu_cxx::__normal_iterator.604", ptr %6, i32 0, i32 0
  store ptr %0, ptr %16, align 8
  store i64 %1, ptr %7, align 8
  store i64 %2, ptr %8, align 8
  store ptr %3, ptr %9, align 8
  store ptr %4, ptr %10, align 8
  %17 = load i64, ptr %7, align 8
  %18 = sub nsw i64 %17, 1
  %19 = sdiv i64 %18, 2
  store i64 %19, ptr %11, align 8
  br label %20

20:                                               ; preds = %34, %5
  %21 = load i64, ptr %7, align 8
  %22 = load i64, ptr %8, align 8
  %23 = icmp sgt i64 %21, %22
  br i1 %23, label %24, label %32

24:                                               ; preds = %20
  %25 = load ptr, ptr %10, align 8
  %26 = load i64, ptr %11, align 8
  %27 = call ptr @_ZNK9__gnu_cxx17__normal_iteratorIPP12cmSourceFileSt6vectorIS2_SaIS2_EEEplEl(ptr noundef nonnull align 8 dereferenceable(8) %6, i64 noundef %26) #3
  %28 = getelementptr inbounds %"class.__gnu_cxx::__normal_iterator.604", ptr %12, i32 0, i32 0
  store ptr %27, ptr %28, align 8
  %29 = getelementptr inbounds %"class.__gnu_cxx::__normal_iterator.604", ptr %12, i32 0, i32 0
  %30 = load ptr, ptr %29, align 8
  %31 = call noundef zeroext i1 @"_ZN9__gnu_cxx5__ops14_Iter_comp_valIZN25cmGhsMultiTargetGenerator12WriteSourcesERSoE3$_0EclINS_17__normal_iteratorIPP12cmSourceFileSt6vectorIS9_SaIS9_EEEES9_EEbT_RT0_"(ptr noundef nonnull align 1 dereferenceable(1) %25, ptr %30, ptr noundef nonnull align 8 dereferenceable(8) %9)
  br label %32

32:                                               ; preds = %24, %20
  %33 = phi i1 [ false, %20 ], [ %31, %24 ]
  br i1 %33, label %34, label %48

34:                                               ; preds = %32
  %35 = load i64, ptr %11, align 8
  %36 = call ptr @_ZNK9__gnu_cxx17__normal_iteratorIPP12cmSourceFileSt6vectorIS2_SaIS2_EEEplEl(ptr noundef nonnull align 8 dereferenceable(8) %6, i64 noundef %35) #3
  %37 = getelementptr inbounds %"class.__gnu_cxx::__normal_iterator.604", ptr %13, i32 0, i32 0
  store ptr %36, ptr %37, align 8
  %38 = call noundef nonnull align 8 dereferenceable(8) ptr @_ZNK9__gnu_cxx17__normal_iteratorIPP12cmSourceFileSt6vectorIS2_SaIS2_EEEdeEv(ptr noundef nonnull align 8 dereferenceable(8) %13) #3
  %39 = load ptr, ptr %38, align 8
  %40 = load i64, ptr %7, align 8
  %41 = call ptr @_ZNK9__gnu_cxx17__normal_iteratorIPP12cmSourceFileSt6vectorIS2_SaIS2_EEEplEl(ptr noundef nonnull align 8 dereferenceable(8) %6, i64 noundef %40) #3
  %42 = getelementptr inbounds %"class.__gnu_cxx::__normal_iterator.604", ptr %14, i32 0, i32 0
  store ptr %41, ptr %42, align 8
  %43 = call noundef nonnull align 8 dereferenceable(8) ptr @_ZNK9__gnu_cxx17__normal_iteratorIPP12cmSourceFileSt6vectorIS2_SaIS2_EEEdeEv(ptr noundef nonnull align 8 dereferenceable(8) %14) #3
  store ptr %39, ptr %43, align 8
  %44 = load i64, ptr %11, align 8
  store i64 %44, ptr %7, align 8
  %45 = load i64, ptr %7, align 8
  %46 = sub nsw i64 %45, 1
  %47 = sdiv i64 %46, 2
  store i64 %47, ptr %11, align 8
  br label %20, !llvm.loop !38

48:                                               ; preds = %32
  %49 = load ptr, ptr %9, align 8
  %50 = load i64, ptr %7, align 8
  %51 = call ptr @_ZNK9__gnu_cxx17__normal_iteratorIPP12cmSourceFileSt6vectorIS2_SaIS2_EEEplEl(ptr noundef nonnull align 8 dereferenceable(8) %6, i64 noundef %50) #3
  %52 = getelementptr inbounds %"class.__gnu_cxx::__normal_iterator.604", ptr %15, i32 0, i32 0
  store ptr %51, ptr %52, align 8
  %53 = call noundef nonnull align 8 dereferenceable(8) ptr @_ZNK9__gnu_cxx17__normal_iteratorIPP12cmSourceFileSt6vectorIS2_SaIS2_EEEdeEv(ptr noundef nonnull align 8 dereferenceable(8) %15) #3
  store ptr %49, ptr %53, align 8
  ret void
}

; Function Attrs: mustprogress nounwind uwtable
define internal void @"_ZN9__gnu_cxx5__ops14_Iter_comp_valIZN25cmGhsMultiTargetGenerator12WriteSourcesERSoE3$_0EC2EONS0_15_Iter_comp_iterIS4_EE"(ptr noundef nonnull align 1 dereferenceable(1) %0, ptr noundef nonnull align 1 dereferenceable(1) %1) unnamed_addr #5 align 2 {
  %3 = alloca ptr, align 8
  %4 = alloca ptr, align 8
  store ptr %0, ptr %3, align 8
  store ptr %1, ptr %4, align 8
  ret void
}

; Function Attrs: mustprogress nounwind uwtable
define linkonce_odr dso_local noundef nonnull align 8 dereferenceable(8) ptr @_ZNK9__gnu_cxx17__normal_iteratorIPP12cmSourceFileSt6vectorIS2_SaIS2_EEEdeEv(ptr noundef nonnull align 8 dereferenceable(8) %0) #5 comdat align 2 {
  %2 = alloca ptr, align 8
  store ptr %0, ptr %2, align 8
  %3 = load ptr, ptr %2, align 8
  %4 = getelementptr inbounds %"class.__gnu_cxx::__normal_iterator.604", ptr %3, i32 0, i32 0
  %5 = load ptr, ptr %4, align 8
  ret ptr %5
}

; Function Attrs: mustprogress uwtable
define internal noundef zeroext i1 @"_ZN9__gnu_cxx5__ops15_Iter_comp_iterIZN25cmGhsMultiTargetGenerator12WriteSourcesERSoE3$_0EclINS_17__normal_iteratorIPP12cmSourceFileSt6vectorIS9_SaIS9_EEEESE_EEbT_T0_"(ptr noundef nonnull align 1 dereferenceable(1) %0, ptr %1, ptr %2) #4 align 2 {
  %4 = alloca %"class.__gnu_cxx::__normal_iterator.604", align 8
  %5 = alloca %"class.__gnu_cxx::__normal_iterator.604", align 8
  %6 = alloca ptr, align 8
  %7 = getelementptr inbounds %"class.__gnu_cxx::__normal_iterator.604", ptr %4, i32 0, i32 0
  store ptr %1, ptr %7, align 8
  %8 = getelementptr inbounds %"class.__gnu_cxx::__normal_iterator.604", ptr %5, i32 0, i32 0
  store ptr %2, ptr %8, align 8
  store ptr %0, ptr %6, align 8
  %9 = load ptr, ptr %6, align 8
  %10 = getelementptr inbounds %"struct.__gnu_cxx::__ops::_Iter_comp_iter", ptr %9, i32 0, i32 0
  %11 = call noundef nonnull align 8 dereferenceable(8) ptr @_ZNK9__gnu_cxx17__normal_iteratorIPP12cmSourceFileSt6vectorIS2_SaIS2_EEEdeEv(ptr noundef nonnull align 8 dereferenceable(8) %4) #3
  %12 = load ptr, ptr %11, align 8
  %13 = call noundef nonnull align 8 dereferenceable(8) ptr @_ZNK9__gnu_cxx17__normal_iteratorIPP12cmSourceFileSt6vectorIS2_SaIS2_EEEdeEv(ptr noundef nonnull align 8 dereferenceable(8) %5) #3
  %14 = load ptr, ptr %13, align 8
  %15 = call noundef zeroext i1 @"_ZZN25cmGhsMultiTargetGenerator12WriteSourcesERSoENK3$_0clEP12cmSourceFileS3_"(ptr noundef nonnull align 1 dereferenceable(1) %10, ptr noundef %12, ptr noundef %14)
  ret i1 %15
}

; Function Attrs: mustprogress nounwind uwtable
define linkonce_odr dso_local ptr @_ZNK9__gnu_cxx17__normal_iteratorIPP12cmSourceFileSt6vectorIS2_SaIS2_EEEplEl(ptr noundef nonnull align 8 dereferenceable(8) %0, i64 noundef %1) #5 comdat align 2 {
  %3 = alloca %"class.__gnu_cxx::__normal_iterator.604", align 8
  %4 = alloca ptr, align 8
  %5 = alloca i64, align 8
  %6 = alloca ptr, align 8
  store ptr %0, ptr %4, align 8
  store i64 %1, ptr %5, align 8
  %7 = load ptr, ptr %4, align 8
  %8 = getelementptr inbounds %"class.__gnu_cxx::__normal_iterator.604", ptr %7, i32 0, i32 0
  %9 = load ptr, ptr %8, align 8
  %10 = load i64, ptr %5, align 8
  %11 = getelementptr inbounds ptr, ptr %9, i64 %10
  store ptr %11, ptr %6, align 8
  call void @_ZN9__gnu_cxx17__normal_iteratorIPP12cmSourceFileSt6vectorIS2_SaIS2_EEEC2ERKS3_(ptr noundef nonnull align 8 dereferenceable(8) %3, ptr noundef nonnull align 8 dereferenceable(8) %6) #3
  %12 = getelementptr inbounds %"class.__gnu_cxx::__normal_iterator.604", ptr %3, i32 0, i32 0
  %13 = load ptr, ptr %12, align 8
  ret ptr %13
}

; Function Attrs: mustprogress uwtable
define internal void @"_ZSt13__adjust_heapIN9__gnu_cxx17__normal_iteratorIPP12cmSourceFileSt6vectorIS3_SaIS3_EEEElS3_NS0_5__ops15_Iter_comp_iterIZN25cmGhsMultiTargetGenerator12WriteSourcesERSoE3$_0EEEvT_T0_SG_T1_T2_"(ptr %0, i64 noundef %1, i64 noundef %2, ptr noundef %3) #4 {
  %5 = alloca %"class.__gnu_cxx::__normal_iterator.604", align 8
  %6 = alloca %"struct.__gnu_cxx::__ops::_Iter_comp_iter", align 1
  %7 = alloca i64, align 8
  %8 = alloca i64, align 8
  %9 = alloca ptr, align 8
  %10 = alloca i64, align 8
  %11 = alloca i64, align 8
  %12 = alloca %"class.__gnu_cxx::__normal_iterator.604", align 8
  %13 = alloca %"class.__gnu_cxx::__normal_iterator.604", align 8
  %14 = alloca %"class.__gnu_cxx::__normal_iterator.604", align 8
  %15 = alloca %"class.__gnu_cxx::__normal_iterator.604", align 8
  %16 = alloca %"class.__gnu_cxx::__normal_iterator.604", align 8
  %17 = alloca %"class.__gnu_cxx::__normal_iterator.604", align 8
  %18 = alloca %"struct.__gnu_cxx::__ops::_Iter_comp_val", align 1
  %19 = alloca %"class.__gnu_cxx::__normal_iterator.604", align 8
  %20 = getelementptr inbounds %"class.__gnu_cxx::__normal_iterator.604", ptr %5, i32 0, i32 0
  store ptr %0, ptr %20, align 8
  store i64 %1, ptr %7, align 8
  store i64 %2, ptr %8, align 8
  store ptr %3, ptr %9, align 8
  %21 = load i64, ptr %7, align 8
  store i64 %21, ptr %10, align 8
  %22 = load i64, ptr %7, align 8
  store i64 %22, ptr %11, align 8
  br label %23

23:                                               ; preds = %48, %4
  %24 = load i64, ptr %11, align 8
  %25 = load i64, ptr %8, align 8
  %26 = sub nsw i64 %25, 1
  %27 = sdiv i64 %26, 2
  %28 = icmp slt i64 %24, %27
  br i1 %28, label %29, label %59

29:                                               ; preds = %23
  %30 = load i64, ptr %11, align 8
  %31 = add nsw i64 %30, 1
  %32 = mul nsw i64 2, %31
  store i64 %32, ptr %11, align 8
  %33 = load i64, ptr %11, align 8
  %34 = call ptr @_ZNK9__gnu_cxx17__normal_iteratorIPP12cmSourceFileSt6vectorIS2_SaIS2_EEEplEl(ptr noundef nonnull align 8 dereferenceable(8) %5, i64 noundef %33) #3
  %35 = getelementptr inbounds %"class.__gnu_cxx::__normal_iterator.604", ptr %12, i32 0, i32 0
  store ptr %34, ptr %35, align 8
  %36 = load i64, ptr %11, align 8
  %37 = sub nsw i64 %36, 1
  %38 = call ptr @_ZNK9__gnu_cxx17__normal_iteratorIPP12cmSourceFileSt6vectorIS2_SaIS2_EEEplEl(ptr noundef nonnull align 8 dereferenceable(8) %5, i64 noundef %37) #3
  %39 = getelementptr inbounds %"class.__gnu_cxx::__normal_iterator.604", ptr %13, i32 0, i32 0
  store ptr %38, ptr %39, align 8
  %40 = getelementptr inbounds %"class.__gnu_cxx::__normal_iterator.604", ptr %12, i32 0, i32 0
  %41 = load ptr, ptr %40, align 8
  %42 = getelementptr inbounds %"class.__gnu_cxx::__normal_iterator.604", ptr %13, i32 0, i32 0
  %43 = load ptr, ptr %42, align 8
  %44 = call noundef zeroext i1 @"_ZN9__gnu_cxx5__ops15_Iter_comp_iterIZN25cmGhsMultiTargetGenerator12WriteSourcesERSoE3$_0EclINS_17__normal_iteratorIPP12cmSourceFileSt6vectorIS9_SaIS9_EEEESE_EEbT_T0_"(ptr noundef nonnull align 1 dereferenceable(1) %6, ptr %41, ptr %43)
  br i1 %44, label %45, label %48

45:                                               ; preds = %29
  %46 = load i64, ptr %11, align 8
  %47 = add nsw i64 %46, -1
  store i64 %47, ptr %11, align 8
  br label %48

48:                                               ; preds = %45, %29
  %49 = load i64, ptr %11, align 8
  %50 = call ptr @_ZNK9__gnu_cxx17__normal_iteratorIPP12cmSourceFileSt6vectorIS2_SaIS2_EEEplEl(ptr noundef nonnull align 8 dereferenceable(8) %5, i64 noundef %49) #3
  %51 = getelementptr inbounds %"class.__gnu_cxx::__normal_iterator.604", ptr %14, i32 0, i32 0
  store ptr %50, ptr %51, align 8
  %52 = call noundef nonnull align 8 dereferenceable(8) ptr @_ZNK9__gnu_cxx17__normal_iteratorIPP12cmSourceFileSt6vectorIS2_SaIS2_EEEdeEv(ptr noundef nonnull align 8 dereferenceable(8) %14) #3
  %53 = load ptr, ptr %52, align 8
  %54 = load i64, ptr %7, align 8
  %55 = call ptr @_ZNK9__gnu_cxx17__normal_iteratorIPP12cmSourceFileSt6vectorIS2_SaIS2_EEEplEl(ptr noundef nonnull align 8 dereferenceable(8) %5, i64 noundef %54) #3
  %56 = getelementptr inbounds %"class.__gnu_cxx::__normal_iterator.604", ptr %15, i32 0, i32 0
  store ptr %55, ptr %56, align 8
  %57 = call noundef nonnull align 8 dereferenceable(8) ptr @_ZNK9__gnu_cxx17__normal_iteratorIPP12cmSourceFileSt6vectorIS2_SaIS2_EEEdeEv(ptr noundef nonnull align 8 dereferenceable(8) %15) #3
  store ptr %53, ptr %57, align 8
  %58 = load i64, ptr %11, align 8
  store i64 %58, ptr %7, align 8
  br label %23, !llvm.loop !37

59:                                               ; preds = %23
  %60 = load i64, ptr %8, align 8
  %61 = and i64 %60, 1
  %62 = icmp eq i64 %61, 0
  br i1 %62, label %63, label %85

63:                                               ; preds = %59
  %64 = load i64, ptr %11, align 8
  %65 = load i64, ptr %8, align 8
  %66 = sub nsw i64 %65, 2
  %67 = sdiv i64 %66, 2
  %68 = icmp eq i64 %64, %67
  br i1 %68, label %69, label %85

69:                                               ; preds = %63
  %70 = load i64, ptr %11, align 8
  %71 = add nsw i64 %70, 1
  %72 = mul nsw i64 2, %71
  store i64 %72, ptr %11, align 8
  %73 = load i64, ptr %11, align 8
  %74 = sub nsw i64 %73, 1
  %75 = call ptr @_ZNK9__gnu_cxx17__normal_iteratorIPP12cmSourceFileSt6vectorIS2_SaIS2_EEEplEl(ptr noundef nonnull align 8 dereferenceable(8) %5, i64 noundef %74) #3
  %76 = getelementptr inbounds %"class.__gnu_cxx::__normal_iterator.604", ptr %16, i32 0, i32 0
  store ptr %75, ptr %76, align 8
  %77 = call noundef nonnull align 8 dereferenceable(8) ptr @_ZNK9__gnu_cxx17__normal_iteratorIPP12cmSourceFileSt6vectorIS2_SaIS2_EEEdeEv(ptr noundef nonnull align 8 dereferenceable(8) %16) #3
  %78 = load ptr, ptr %77, align 8
  %79 = load i64, ptr %7, align 8
  %80 = call ptr @_ZNK9__gnu_cxx17__normal_iteratorIPP12cmSourceFileSt6vectorIS2_SaIS2_EEEplEl(ptr noundef nonnull align 8 dereferenceable(8) %5, i64 noundef %79) #3
  %81 = getelementptr inbounds %"class.__gnu_cxx::__normal_iterator.604", ptr %17, i32 0, i32 0
  store ptr %80, ptr %81, align 8
  %82 = call noundef nonnull align 8 dereferenceable(8) ptr @_ZNK9__gnu_cxx17__normal_iteratorIPP12cmSourceFileSt6vectorIS2_SaIS2_EEEdeEv(ptr noundef nonnull align 8 dereferenceable(8) %17) #3
  store ptr %78, ptr %82, align 8
  %83 = load i64, ptr %11, align 8
  %84 = sub nsw i64 %83, 1
  store i64 %84, ptr %7, align 8
  br label %85

85:                                               ; preds = %69, %63, %59
  call void @"_ZN9__gnu_cxx5__ops14_Iter_comp_valIZN25cmGhsMultiTargetGenerator12WriteSourcesERSoE3$_0EC2EONS0_15_Iter_comp_iterIS4_EE"(ptr noundef nonnull align 1 dereferenceable(1) %18, ptr noundef nonnull align 1 dereferenceable(1) %6)
  call void @llvm.memcpy.p0.p0.i64(ptr align 8 %19, ptr align 8 %5, i64 8, i1 false)
  %86 = load i64, ptr %7, align 8
  %87 = load i64, ptr %10, align 8
  %88 = load ptr, ptr %9, align 8
  %89 = getelementptr inbounds %"class.__gnu_cxx::__normal_iterator.604", ptr %19, i32 0, i32 0
  %90 = load ptr, ptr %89, align 8
  call void @"_ZSt11__push_heapIN9__gnu_cxx17__normal_iteratorIPP12cmSourceFileSt6vectorIS3_SaIS3_EEEElS3_NS0_5__ops14_Iter_comp_valIZN25cmGhsMultiTargetGenerator12WriteSourcesERSoE3$_0EEEvT_T0_SG_T1_RT2_"(ptr %90, i64 noundef %86, i64 noundef %87, ptr noundef %88, ptr noundef nonnull align 1 dereferenceable(1) %18)
  ret void
}