; Function Attrs: mustprogress uwtable
define internal fastcc void @"_ZSt13__adjust_heapIN9__gnu_cxx17__normal_iteratorIPP12cmSourceFileSt6vectorIS3_SaIS3_EEEElS3_NS0_5__ops15_Iter_comp_iterIZN25cmGhsMultiTargetGenerator12WriteSourcesERSoE3$_0EEEvT_T0_SG_T1_T2_"(ptr nocapture %0, i64 noundef %1, i64 noundef %2, ptr noundef %3) unnamed_addr #3 personality ptr @__gxx_personality_v0 {
  %5 = add nsw i64 %2, -1
  %6 = sdiv i64 %5, 2
  %7 = icmp sgt i64 %6, %1
  br i1 %7, label %.lr.ph, label %._crit_edge

.lr.ph:                                           ; preds = %4, %"_ZN9__gnu_cxx5__ops15_Iter_comp_iterIZN25cmGhsMultiTargetGenerator12WriteSourcesERSoE3$_0EclINS_17__normal_iteratorIPP12cmSourceFileSt6vectorIS9_SaIS9_EEEESE_EEbT_T0_.exit"
  %.034 = phi i64 [ %spec.select, %"_ZN9__gnu_cxx5__ops15_Iter_comp_iterIZN25cmGhsMultiTargetGenerator12WriteSourcesERSoE3$_0EclINS_17__normal_iteratorIPP12cmSourceFileSt6vectorIS9_SaIS9_EEEESE_EEbT_T0_.exit" ], [ %1, %4 ]
  %8 = shl i64 %.034, 1
  %9 = add i64 %8, 2
  %10 = getelementptr inbounds ptr, ptr %0, i64 %9
  %11 = or disjoint i64 %8, 1
  %12 = getelementptr inbounds ptr, ptr %0, i64 %11
  %13 = load ptr, ptr %10, align 8
  %14 = load ptr, ptr %12, align 8
  %15 = tail call noundef nonnull align 8 dereferenceable(32) ptr @_ZN12cmSourceFile15ResolveFullPathEPNSt7__cxx1112basic_stringIcSt11char_traitsIcESaIcEEES6_(ptr noundef nonnull align 8 dereferenceable(370) %13, ptr noundef null, ptr noundef null)
  %16 = tail call noundef nonnull align 8 dereferenceable(32) ptr @_ZN12cmSourceFile15ResolveFullPathEPNSt7__cxx1112basic_stringIcSt11char_traitsIcESaIcEEES6_(ptr noundef nonnull align 8 dereferenceable(370) %14, ptr noundef null, ptr noundef null)
  %17 = invoke noundef i32 @_ZNKSt7__cxx1112basic_stringIcSt11char_traitsIcESaIcEE7compareERKS4_(ptr noundef nonnull align 8 dereferenceable(32) %15, ptr noundef nonnull align 8 dereferenceable(32) %16)
          to label %"_ZN9__gnu_cxx5__ops15_Iter_comp_iterIZN25cmGhsMultiTargetGenerator12WriteSourcesERSoE3$_0EclINS_17__normal_iteratorIPP12cmSourceFileSt6vectorIS9_SaIS9_EEEESE_EEbT_T0_.exit" unwind label %18

18:                                               ; preds = %.lr.ph
  %19 = landingpad { ptr, i32 }
          catch ptr null
  %20 = extractvalue { ptr, i32 } %19, 0
  tail call void @__clang_call_terminate(ptr %20) #22
  unreachable

"_ZN9__gnu_cxx5__ops15_Iter_comp_iterIZN25cmGhsMultiTargetGenerator12WriteSourcesERSoE3$_0EclINS_17__normal_iteratorIPP12cmSourceFileSt6vectorIS9_SaIS9_EEEESE_EEbT_T0_.exit": ; preds = %.lr.ph
  %21 = icmp slt i32 %17, 0
  %spec.select = select i1 %21, i64 %11, i64 %9
  %22 = getelementptr inbounds ptr, ptr %0, i64 %spec.select
  %23 = load ptr, ptr %22, align 8
  %24 = getelementptr inbounds ptr, ptr %0, i64 %.034
  store ptr %23, ptr %24, align 8
  %25 = icmp slt i64 %spec.select, %6
  br i1 %25, label %.lr.ph, label %._crit_edge, !llvm.loop !228

._crit_edge:                                      ; preds = %"_ZN9__gnu_cxx5__ops15_Iter_comp_iterIZN25cmGhsMultiTargetGenerator12WriteSourcesERSoE3$_0EclINS_17__normal_iteratorIPP12cmSourceFileSt6vectorIS9_SaIS9_EEEESE_EEbT_T0_.exit", %4
  %.0.lcssa = phi i64 [ %1, %4 ], [ %spec.select, %"_ZN9__gnu_cxx5__ops15_Iter_comp_iterIZN25cmGhsMultiTargetGenerator12WriteSourcesERSoE3$_0EclINS_17__normal_iteratorIPP12cmSourceFileSt6vectorIS9_SaIS9_EEEESE_EEbT_T0_.exit" ]
  %26 = and i64 %2, 1
  %27 = icmp eq i64 %26, 0
  br i1 %27, label %28, label %38

28:                                               ; preds = %._crit_edge
  %29 = add nsw i64 %2, -2
  %30 = ashr exact i64 %29, 1
  %31 = icmp eq i64 %.0.lcssa, %30
  br i1 %31, label %32, label %38

32:                                               ; preds = %28
  %33 = shl nsw i64 %.0.lcssa, 1
  %34 = or disjoint i64 %33, 1
  %35 = getelementptr inbounds ptr, ptr %0, i64 %34
  %36 = load ptr, ptr %35, align 8
  %37 = getelementptr inbounds ptr, ptr %0, i64 %.0.lcssa
  store ptr %36, ptr %37, align 8
  br label %38

38:                                               ; preds = %32, %28, %._crit_edge
  %.1 = phi i64 [ %34, %32 ], [ %.0.lcssa, %28 ], [ %.0.lcssa, %._crit_edge ]
  %39 = icmp sgt i64 %.1, %1
  br i1 %39, label %.lr.ph.i, label %"_ZSt11__push_heapIN9__gnu_cxx17__normal_iteratorIPP12cmSourceFileSt6vectorIS3_SaIS3_EEEElS3_NS0_5__ops14_Iter_comp_valIZN25cmGhsMultiTargetGenerator12WriteSourcesERSoE3$_0EEEvT_T0_SG_T1_RT2_.exit"

.lr.ph.i:                                         ; preds = %38, %49
  %.010.i = phi i64 [ %.0911.i, %49 ], [ %.1, %38 ]
  %.0911.in.i = add nsw i64 %.010.i, -1
  %.0911.i = sdiv i64 %.0911.in.i, 2
  %40 = getelementptr inbounds ptr, ptr %0, i64 %.0911.i
  %41 = load ptr, ptr %40, align 8
  %42 = tail call noundef nonnull align 8 dereferenceable(32) ptr @_ZN12cmSourceFile15ResolveFullPathEPNSt7__cxx1112basic_stringIcSt11char_traitsIcESaIcEEES6_(ptr noundef nonnull align 8 dereferenceable(370) %41, ptr noundef null, ptr noundef null)
  %43 = tail call noundef nonnull align 8 dereferenceable(32) ptr @_ZN12cmSourceFile15ResolveFullPathEPNSt7__cxx1112basic_stringIcSt11char_traitsIcESaIcEEES6_(ptr noundef nonnull align 8 dereferenceable(370) %3, ptr noundef null, ptr noundef null)
  %44 = invoke noundef i32 @_ZNKSt7__cxx1112basic_stringIcSt11char_traitsIcESaIcEE7compareERKS4_(ptr noundef nonnull align 8 dereferenceable(32) %42, ptr noundef nonnull align 8 dereferenceable(32) %43)
          to label %"_ZN9__gnu_cxx5__ops14_Iter_comp_valIZN25cmGhsMultiTargetGenerator12WriteSourcesERSoE3$_0EclINS_17__normal_iteratorIPP12cmSourceFileSt6vectorIS9_SaIS9_EEEES9_EEbT_RT0_.exit.i" unwind label %45

45:                                               ; preds = %.lr.ph.i
  %46 = landingpad { ptr, i32 }
          catch ptr null
  %47 = extractvalue { ptr, i32 } %46, 0
  tail call void @__clang_call_terminate(ptr %47) #22
  unreachable

"_ZN9__gnu_cxx5__ops14_Iter_comp_valIZN25cmGhsMultiTargetGenerator12WriteSourcesERSoE3$_0EclINS_17__normal_iteratorIPP12cmSourceFileSt6vectorIS9_SaIS9_EEEES9_EEbT_RT0_.exit.i": ; preds = %.lr.ph.i
  %48 = icmp slt i32 %44, 0
  br i1 %48, label %49, label %"_ZSt11__push_heapIN9__gnu_cxx17__normal_iteratorIPP12cmSourceFileSt6vectorIS3_SaIS3_EEEElS3_NS0_5__ops14_Iter_comp_valIZN25cmGhsMultiTargetGenerator12WriteSourcesERSoE3$_0EEEvT_T0_SG_T1_RT2_.exit"

49:                                               ; preds = %"_ZN9__gnu_cxx5__ops14_Iter_comp_valIZN25cmGhsMultiTargetGenerator12WriteSourcesERSoE3$_0EclINS_17__normal_iteratorIPP12cmSourceFileSt6vectorIS9_SaIS9_EEEES9_EEbT_RT0_.exit.i"
  %50 = load ptr, ptr %40, align 8
  %51 = getelementptr inbounds ptr, ptr %0, i64 %.010.i
  store ptr %50, ptr %51, align 8
  %52 = icmp sgt i64 %.0911.i, %1
  br i1 %52, label %.lr.ph.i, label %"_ZSt11__push_heapIN9__gnu_cxx17__normal_iteratorIPP12cmSourceFileSt6vectorIS3_SaIS3_EEEElS3_NS0_5__ops14_Iter_comp_valIZN25cmGhsMultiTargetGenerator12WriteSourcesERSoE3$_0EEEvT_T0_SG_T1_RT2_.exit", !llvm.loop !229

"_ZSt11__push_heapIN9__gnu_cxx17__normal_iteratorIPP12cmSourceFileSt6vectorIS3_SaIS3_EEEElS3_NS0_5__ops14_Iter_comp_valIZN25cmGhsMultiTargetGenerator12WriteSourcesERSoE3$_0EEEvT_T0_SG_T1_RT2_.exit": ; preds = %"_ZN9__gnu_cxx5__ops14_Iter_comp_valIZN25cmGhsMultiTargetGenerator12WriteSourcesERSoE3$_0EclINS_17__normal_iteratorIPP12cmSourceFileSt6vectorIS9_SaIS9_EEEES9_EEbT_RT0_.exit.i", %49, %38
  %.0.lcssa.i = phi i64 [ %.1, %38 ], [ %.010.i, %"_ZN9__gnu_cxx5__ops14_Iter_comp_valIZN25cmGhsMultiTargetGenerator12WriteSourcesERSoE3$_0EclINS_17__normal_iteratorIPP12cmSourceFileSt6vectorIS9_SaIS9_EEEES9_EEbT_RT0_.exit.i" ], [ %.0911.i, %49 ]
  %53 = getelementptr inbounds ptr, ptr %0, i64 %.0.lcssa.i
  store ptr %3, ptr %53, align 8
  ret void
}